target datalayout = "e-m:e-p270:32:32-p271:32:32-p272:64:64-i64:64-i128:128-f80:128-n8:16:32:64-S128"
target triple = "x86_64-pc-linux-gnu"

%"class.YAML::NodeEvents::AliasManager" = type { %"class.std::map", i64 }
%"class.std::map" = type { %"class.std::_Rb_tree" }
%"class.std::_Rb_tree" = type { %"struct.std::_Rb_tree<const YAML::detail::node_ref *, std::pair<const YAML::detail::node_ref *const, unsigned long>, std::_Select1st<std::pair<const YAML::detail::node_ref *const, unsigned long>>, std::less<const YAML::detail::node_ref *>>::_Rb_tree_impl" }
%"struct.std::_Rb_tree<const YAML::detail::node_ref *, std::pair<const YAML::detail::node_ref *const, unsigned long>, std::_Select1st<std::pair<const YAML::detail::node_ref *const, unsigned long>>, std::less<const YAML::detail::node_ref *>>::_Rb_tree_impl" = type { [8 x i8], %"struct.std::_Rb_tree_header" }
%"struct.std::_Rb_tree_header" = type { %"struct.std::_Rb_tree_node_base", i64 }
%"struct.std::_Rb_tree_node_base" = type { i32, ptr, ptr, ptr }
%"class.std::__shared_count" = type { ptr }
%"class.YAML::NodeEvents" = type { %"class.std::shared_ptr.9", ptr, %"class.std::map.12" }
%"class.std::shared_ptr.9" = type { %"class.std::__shared_ptr.10" }
%"class.std::__shared_ptr.10" = type { ptr, %"class.std::__shared_count" }
%"class.std::map.12" = type { %"class.std::_Rb_tree.13" }
%"class.std::_Rb_tree.13" = type { %"struct.std::_Rb_tree<const YAML::detail::node_ref *, std::pair<const YAML::detail::node_ref *const, int>, std::_Select1st<std::pair<const YAML::detail::node_ref *const, int>>, std::less<const YAML::detail::node_ref *>>::_Rb_tree_impl" }
%"struct.std::_Rb_tree<const YAML::detail::node_ref *, std::pair<const YAML::detail::node_ref *const, int>, std::_Select1st<std::pair<const YAML::detail::node_ref *const, int>>, std::less<const YAML::detail::node_ref *>>::_Rb_tree_impl" = type { [8 x i8], %"struct.std::_Rb_tree_header" }
%"struct.YAML::Mark" = type { i32, i32, i32 }

; Function Attrs: mustprogress nounwind uwtable
define linkonce_odr void @_ZNSt15_Rb_tree_header8_M_resetEv(ptr noundef nonnull align 8 dereferenceable(40) %0) #2 comdat align 2 {
  %2 = alloca ptr, align 8
  store ptr %0, ptr %2, align 8, !tbaa !131
  %3 = load ptr, ptr %2, align 8
  %4 = getelementptr inbounds nuw %"struct.std::_Rb_tree_header", ptr %3, i32 0, i32 0
  %5 = getelementptr inbounds nuw %"struct.std::_Rb_tree_node_base", ptr %4, i32 0, i32 1
  store ptr null, ptr %5, align 8, !tbaa !136
  %6 = getelementptr inbounds nuw %"struct.std::_Rb_tree_header", ptr %3, i32 0, i32 0
  %7 = getelementptr inbounds nuw %"struct.std::_Rb_tree_header", ptr %3, i32 0, i32 0
  %8 = getelementptr inbounds nuw %"struct.std::_Rb_tree_node_base", ptr %7, i32 0, i32 2
  store ptr %6, ptr %8, align 8, !tbaa !137
  %9 = getelementptr inbounds nuw %"struct.std::_Rb_tree_header", ptr %3, i32 0, i32 0
  %10 = getelementptr inbounds nuw %"struct.std::_Rb_tree_header", ptr %3, i32 0, i32 0
  %11 = getelementptr inbounds nuw %"struct.std::_Rb_tree_node_base", ptr %10, i32 0, i32 3
  store ptr %9, ptr %11, align 8, !tbaa !138
  %12 = getelementptr inbounds nuw %"struct.std::_Rb_tree_header", ptr %3, i32 0, i32 1
  store i64 0, ptr %12, align 8, !tbaa !139
  ret void
}

; Function Attrs: mustprogress nounwind uwtable
define linkonce_odr void @_ZNSt15__new_allocatorISt13_Rb_tree_nodeISt4pairIKPKN4YAML6detail8node_refEmEEEC2Ev(ptr noundef nonnull align 1 dereferenceable(1) %0) unnamed_addr #2 comdat align 2 {
  %2 = alloca ptr, align 8
  store ptr %0, ptr %2, align 8, !tbaa !195
  ret void
}

; Function Attrs: mustprogress nounwind uwtable
define linkonce_odr void @_ZNSt15_Rb_tree_headerC2Ev(ptr noundef nonnull align 8 dereferenceable(40) %0) unnamed_addr #2 comdat align 2 personality ptr @__gxx_personality_v0 {
  %2 = alloca ptr, align 8
  store ptr %0, ptr %2, align 8, !tbaa !131
  %3 = load ptr, ptr %2, align 8
  %4 = getelementptr inbounds nuw %"struct.std::_Rb_tree_header", ptr %3, i32 0, i32 0
  %5 = getelementptr inbounds nuw %"struct.std::_Rb_tree_node_base", ptr %4, i32 0, i32 0
  store i32 0, ptr %5, align 8, !tbaa !133
  invoke void @_ZNSt15_Rb_tree_header8_M_resetEv(ptr noundef nonnull align 8 dereferenceable(40) %3)
          to label %6 unwind label %7

6:                                                ; preds = %1
  ret void

7:                                                ; preds = %1
  %8 = landingpad { ptr, i32 }
          catch ptr null
  %9 = extractvalue { ptr, i32 } %8, 0
  call void @__clang_call_terminate(ptr %9) #19
  unreachable
}

; Function Attrs: mustprogress nounwind uwtable
define linkonce_odr void @_ZNSt20_Rb_tree_key_compareISt4lessIPKN4YAML6detail8node_refEEEC2Ev(ptr noundef nonnull align 1 dereferenceable(1) %0) unnamed_addr #2 comdat align 2 {
  %2 = alloca ptr, align 8
  store ptr %0, ptr %2, align 8, !tbaa !129
  ret void
}

; Function Attrs: mustprogress nounwind uwtable
define linkonce_odr void @_ZNSaISt13_Rb_tree_nodeISt4pairIKPKN4YAML6detail8node_refEmEEEC2Ev(ptr noundef nonnull align 1 dereferenceable(1) %0) unnamed_addr #2 comdat align 2 {
  %2 = alloca ptr, align 8
  store ptr %0, ptr %2, align 8, !tbaa !193
  %3 = load ptr, ptr %2, align 8
  call void @_ZNSt15__new_allocatorISt13_Rb_tree_nodeISt4pairIKPKN4YAML6detail8node_refEmEEEC2Ev(ptr noundef nonnull align 1 dereferenceable(1) %3) #18
  ret void
}

; Function Attrs: mustprogress nounwind uwtable
define linkonce_odr void @_ZNSt8_Rb_treeIPKN4YAML6detail8node_refESt4pairIKS4_mESt10_Select1stIS7_ESt4lessIS4_ESaIS7_EE13_Rb_tree_implISB_Lb1EEC2Ev(ptr noundef nonnull align 8 dereferenceable(48) %0) unnamed_addr #2 comdat align 2 {
  %2 = alloca ptr, align 8
  store ptr %0, ptr %2, align 8, !tbaa !191
  %3 = load ptr, ptr %2, align 8
  call void @_ZNSaISt13_Rb_tree_nodeISt4pairIKPKN4YAML6detail8node_refEmEEEC2Ev(ptr noundef nonnull align 1 dereferenceable(1) %3) #18
  call void @_ZNSt20_Rb_tree_key_compareISt4lessIPKN4YAML6detail8node_refEEEC2Ev(ptr noundef nonnull align 1 dereferenceable(1) %3) #18
  %4 = getelementptr inbounds i8, ptr %3, i64 8
  call void @_ZNSt15_Rb_tree_headerC2Ev(ptr noundef nonnull align 8 dereferenceable(40) %4) #18
  ret void
}

; Function Attrs: mustprogress nounwind uwtable
define linkonce_odr void @_ZNSt8_Rb_treeIPKN4YAML6detail8node_refESt4pairIKS4_mESt10_Select1stIS7_ESt4lessIS4_ESaIS7_EEC2Ev(ptr noundef nonnull align 8 dereferenceable(48) %0) unnamed_addr #2 comdat align 2 {
  %2 = alloca ptr, align 8
  store ptr %0, ptr %2, align 8, !tbaa !189
  %3 = load ptr, ptr %2, align 8
  %4 = getelementptr inbounds nuw %"class.std::_Rb_tree", ptr %3, i32 0, i32 0
  call void @_ZNSt8_Rb_treeIPKN4YAML6detail8node_refESt4pairIKS4_mESt10_Select1stIS7_ESt4lessIS4_ESaIS7_EE13_Rb_tree_implISB_Lb1EEC2Ev(ptr noundef nonnull align 8 dereferenceable(48) %4) #18
  ret void
}

; Function Attrs: mustprogress nounwind uwtable
define linkonce_odr void @_ZNSt3mapIPKN4YAML6detail8node_refEmSt4lessIS4_ESaISt4pairIKS4_mEEEC2Ev(ptr noundef nonnull align 8 dereferenceable(48) %0) unnamed_addr #2 comdat align 2 {
  %2 = alloca ptr, align 8
  store ptr %0, ptr %2, align 8, !tbaa !14
  %3 = load ptr, ptr %2, align 8
  %4 = getelementptr inbounds nuw %"class.std::map", ptr %3, i32 0, i32 0
  call void @_ZNSt8_Rb_treeIPKN4YAML6detail8node_refESt4pairIKS4_mESt10_Select1stIS7_ESt4lessIS4_ESaIS7_EEC2Ev(ptr noundef nonnull align 8 dereferenceable(48) %4) #18
  ret void
}

; Function Attrs: mustprogress nounwind uwtable
define linkonce_odr void @_ZN4YAML4MarkC2Ev(ptr noundef nonnull align 4 dereferenceable(12) %0) unnamed_addr #2 comdat align 2 {
  %2 = alloca ptr, align 8
  store ptr %0, ptr %2, align 8, !tbaa !99
  %3 = load ptr, ptr %2, align 8
  %4 = getelementptr inbounds nuw %"struct.YAML::Mark", ptr %3, i32 0, i32 0
  store i32 0, ptr %4, align 4, !tbaa !101
  %5 = getelementptr inbounds nuw %"struct.YAML::Mark", ptr %3, i32 0, i32 1
  store i32 0, ptr %5, align 4, !tbaa !103
  %6 = getelementptr inbounds nuw %"struct.YAML::Mark", ptr %3, i32 0, i32 2
  store i32 0, ptr %6, align 4, !tbaa !104
  ret void
}

; Function Attrs: mustprogress nounwind uwtable
define linkonce_odr void @_ZN4YAML10NodeEvents12AliasManagerC2Ev(ptr noundef nonnull align 8 dereferenceable(56) %0) unnamed_addr #2 comdat align 2 {
  %2 = alloca ptr, align 8
  store ptr %0, ptr %2, align 8, !tbaa !3
  %3 = load ptr, ptr %2, align 8
  %4 = getelementptr inbounds nuw %"class.YAML::NodeEvents::AliasManager", ptr %3, i32 0, i32 0
  call void @llvm.memset.p0.i64(ptr align 8 %4, i8 0, i64 48, i1 false)
  call void @_ZNSt3mapIPKN4YAML6detail8node_refEmSt4lessIS4_ESaISt4pairIKS4_mEEEC2Ev(ptr noundef nonnull align 8 dereferenceable(48) %4) #18
  %5 = getelementptr inbounds nuw %"class.YAML::NodeEvents::AliasManager", ptr %3, i32 0, i32 1
  store i64 0, ptr %5, align 8, !tbaa !23
  ret void
}

; Function Attrs: mustprogress uwtable
define void @_ZN4YAML10NodeEvents4EmitERNS_12EventHandlerE(ptr noundef nonnull align 8 dereferenceable(72) %0, ptr noundef nonnull align 8 dereferenceable(8) %1) #0 align 2 personality ptr @__gxx_personality_v0 {
  %3 = alloca ptr, align 8
  %4 = alloca ptr, align 8
  %5 = alloca %"class.YAML::NodeEvents::AliasManager", align 8
  %6 = alloca %"struct.YAML::Mark", align 4
  %7 = alloca ptr, align 8
  %8 = alloca i32, align 4
  store ptr %0, ptr %3, align 8, !tbaa !40
  store ptr %1, ptr %4, align 8, !tbaa !95
  %9 = load ptr, ptr %3, align 8
  call void @llvm.lifetime.start.p0(i64 56, ptr %5) #18
  call void @_ZN4YAML10NodeEvents12AliasManagerC2Ev(ptr noundef nonnull align 8 dereferenceable(56) %5)
  %10 = load ptr, ptr %4, align 8, !tbaa !95
  call void @llvm.lifetime.start.p0(i64 12, ptr %6) #18
  invoke void @_ZN4YAML4MarkC2Ev(ptr noundef nonnull align 4 dereferenceable(12) %6)
          to label %11 unwind label %24

11:                                               ; preds = %2
  %12 = load ptr, ptr %10, align 8, !tbaa !97
  %13 = getelementptr inbounds ptr, ptr %12, i64 2
  %14 = load ptr, ptr %13, align 8
  invoke void %14(ptr noundef nonnull align 8 dereferenceable(8) %10, ptr noundef nonnull align 4 dereferenceable(12) %6)
          to label %15 unwind label %24

15:                                               ; preds = %11
  call void @llvm.lifetime.end.p0(i64 12, ptr %6) #18
  %16 = getelementptr inbounds nuw %"class.YAML::NodeEvents", ptr %9, i32 0, i32 1
  %17 = load ptr, ptr %16, align 8, !tbaa !55
  %18 = icmp ne ptr %17, null
  br i1 %18, label %19, label %32

19:                                               ; preds = %15
  %20 = getelementptr inbounds nuw %"class.YAML::NodeEvents", ptr %9, i32 0, i32 1
  %21 = load ptr, ptr %20, align 8, !tbaa !55
  %22 = load ptr, ptr %4, align 8, !tbaa !95
  invoke void @_ZNK4YAML10NodeEvents4EmitERKNS_6detail4nodeERNS_12EventHandlerERNS0_12AliasManagerE(ptr noundef nonnull align 8 dereferenceable(72) %9, ptr noundef nonnull align 8 dereferenceable(72) %21, ptr noundef nonnull align 8 dereferenceable(8) %22, ptr noundef nonnull align 8 dereferenceable(56) %5)
          to label %23 unwind label %28

23:                                               ; preds = %19
  br label %32

24:                                               ; preds = %11, %2
  %25 = landingpad { ptr, i32 }
          cleanup
  %26 = extractvalue { ptr, i32 } %25, 0
  store ptr %26, ptr %7, align 8
  %27 = extractvalue { ptr, i32 } %25, 1
  store i32 %27, ptr %8, align 4
  call void @llvm.lifetime.end.p0(i64 12, ptr %6) #18
  br label %38

28:                                               ; preds = %32, %19
  %29 = landingpad { ptr, i32 }
          cleanup
  %30 = extractvalue { ptr, i32 } %29, 0
  store ptr %30, ptr %7, align 8
  %31 = extractvalue { ptr, i32 } %29, 1
  store i32 %31, ptr %8, align 4
  br label %38

32:                                               ; preds = %23, %15
  %33 = load ptr, ptr %4, align 8, !tbaa !95
  %34 = load ptr, ptr %33, align 8, !tbaa !97
  %35 = getelementptr inbounds ptr, ptr %34, i64 3
  %36 = load ptr, ptr %35, align 8
  invoke void %36(ptr noundef nonnull align 8 dereferenceable(8) %33)
          to label %37 unwind label %28

37:                                               ; preds = %32
  call void @_ZN4YAML10NodeEvents12AliasManagerD2Ev(ptr noundef nonnull align 8 dereferenceable(56) %5) #18
  call void @llvm.lifetime.end.p0(i64 56, ptr %5) #18
  ret void

38:                                               ; preds = %28, %24
  call void @_ZN4YAML10NodeEvents12AliasManagerD2Ev(ptr noundef nonnull align 8 dereferenceable(56) %5) #18
  call void @llvm.lifetime.end.p0(i64 56, ptr %5) #18
  br label %39

39:                                               ; preds = %38
  %40 = load ptr, ptr %7, align 8
  %41 = load i32, ptr %8, align 4
  %42 = insertvalue { ptr, i32 } poison, ptr %40, 0
  %43 = insertvalue { ptr, i32 } %42, i32 %41, 1
  resume { ptr, i32 } %43
}