; Function Attrs: mustprogress uwtable
define void @_ZN4YAML10NodeEvents4EmitERNS_12EventHandlerE(ptr noundef nonnull align 8 dereferenceable(72) %0, ptr noundef nonnull align 8 dereferenceable(8) %1) local_unnamed_addr #0 align 2 personality ptr @__gxx_personality_v0 {
  %3 = alloca %"class.YAML::NodeEvents::AliasManager", align 8
  %4 = alloca %"struct.YAML::Mark", align 4
  call void @llvm.lifetime.start.p0(i64 56, ptr nonnull %3) #15
  %5 = getelementptr inbounds nuw i8, ptr %3, i64 8
  %6 = getelementptr inbounds nuw i8, ptr %3, i64 24
  call void @llvm.memset.p0.i64(ptr noundef nonnull align 8 dereferenceable(56) %3, i8 0, i64 24, i1 false)
  store ptr %5, ptr %6, align 8, !tbaa !50
  %7 = getelementptr inbounds nuw i8, ptr %3, i64 32
  store ptr %5, ptr %7, align 8, !tbaa !51
  %8 = getelementptr inbounds nuw i8, ptr %3, i64 40
  call void @llvm.memset.p0.i64(ptr noundef nonnull align 8 dereferenceable(16) %8, i8 0, i64 16, i1 false)
  call void @llvm.lifetime.start.p0(i64 12, ptr nonnull %4) #15
  store i32 0, ptr %4, align 4, !tbaa !122
  %9 = getelementptr inbounds nuw i8, ptr %4, i64 4
  store i32 0, ptr %9, align 4, !tbaa !123
  %10 = getelementptr inbounds nuw i8, ptr %4, i64 8
  store i32 0, ptr %10, align 4, !tbaa !124
  %11 = load ptr, ptr %1, align 8, !tbaa !115
  %12 = getelementptr inbounds nuw i8, ptr %11, i64 16
  %13 = load ptr, ptr %12, align 8
  invoke void %13(ptr noundef nonnull align 8 dereferenceable(8) %1, ptr noundef nonnull align 4 dereferenceable(12) %4)
          to label %14 unwind label %18

14:                                               ; preds = %2
  call void @llvm.lifetime.end.p0(i64 12, ptr nonnull %4) #15
  %15 = getelementptr inbounds nuw i8, ptr %0, i64 16
  %16 = load ptr, ptr %15, align 8, !tbaa !45
  %.not = icmp eq ptr %16, null
  br i1 %.not, label %22, label %17

17:                                               ; preds = %14
  invoke void @_ZNK4YAML10NodeEvents4EmitERKNS_6detail4nodeERNS_12EventHandlerERNS0_12AliasManagerE(ptr noundef nonnull align 8 dereferenceable(72) %0, ptr noundef nonnull align 8 dereferenceable(72) %16, ptr noundef nonnull align 8 dereferenceable(8) %1, ptr noundef nonnull align 8 dereferenceable(56) %3)
          to label %22 unwind label %20

18:                                               ; preds = %2
  %19 = landingpad { ptr, i32 }
          cleanup
  call void @llvm.lifetime.end.p0(i64 12, ptr nonnull %4) #15
  br label %32

20:                                               ; preds = %22, %17
  %21 = landingpad { ptr, i32 }
          cleanup
  br label %32

22:                                               ; preds = %17, %14
  %23 = load ptr, ptr %1, align 8, !tbaa !115
  %24 = getelementptr inbounds nuw i8, ptr %23, i64 24
  %25 = load ptr, ptr %24, align 8
  invoke void %25(ptr noundef nonnull align 8 dereferenceable(8) %1)
          to label %26 unwind label %20

26:                                               ; preds = %22
  %27 = getelementptr inbounds nuw i8, ptr %3, i64 16
  %28 = load ptr, ptr %27, align 8, !tbaa !23
  invoke void @_ZNSt8_Rb_treeIPKN4YAML6detail8node_refESt4pairIKS4_mESt10_Select1stIS7_ESt4lessIS4_ESaIS7_EE8_M_eraseEPSt13_Rb_tree_nodeIS7_E(ptr noundef nonnull align 8 dereferenceable(56) %3, ptr noundef %28)
          to label %_ZN4YAML10NodeEvents12AliasManagerD2Ev.exit unwind label %29

29:                                               ; preds = %26
  %30 = landingpad { ptr, i32 }
          catch ptr null
  %31 = extractvalue { ptr, i32 } %30, 0
  call void @__clang_call_terminate(ptr %31) #16
  unreachable

_ZN4YAML10NodeEvents12AliasManagerD2Ev.exit:      ; preds = %26
  call void @llvm.lifetime.end.p0(i64 56, ptr nonnull %3) #15
  ret void

32:                                               ; preds = %20, %18
  %.pn = phi { ptr, i32 } [ %21, %20 ], [ %19, %18 ]
  call void @_ZN4YAML10NodeEvents12AliasManagerD2Ev(ptr noundef nonnull align 8 dereferenceable(56) %3) #15
  call void @llvm.lifetime.end.p0(i64 56, ptr nonnull %3) #15
  resume { ptr, i32 } %.pn
}